target datalayout = "e-m:e-p270:32:32-p271:32:32-p272:64:64-i64:64-i128:128-f80:128-n8:16:32:64-S128"
target triple = "x86_64-pc-linux-gnu"

%struct.tvbuff = type { ptr, ptr, i8, i32, ptr, ptr, i32, i32, i32, i32 }
%struct.tvb_subset = type { %struct.tvbuff, %struct.tvb_backing_t }
%struct.tvb_backing_t = type { ptr, i32, i32 }

; Function Attrs: null_pointer_is_valid sspstrong uwtable
define internal ptr @subset_clone(ptr noundef %0, i32 noundef %1, i32 noundef %2) #0 {
  %4 = alloca ptr, align 8
  %5 = alloca i32, align 4
  %6 = alloca i32, align 4
  %7 = alloca ptr, align 8
  store ptr %0, ptr %4, align 8
  store i32 %1, ptr %5, align 4
  store i32 %2, ptr %6, align 4
  call void @llvm.lifetime.start.p0(i64 8, ptr %7) #4
  %8 = load ptr, ptr %4, align 8
  store ptr %8, ptr %7, align 8
  %9 = load ptr, ptr %7, align 8
  %10 = getelementptr inbounds nuw %struct.tvb_subset, ptr %9, i32 0, i32 1
  %11 = getelementptr inbounds nuw %struct.tvb_backing_t, ptr %10, i32 0, i32 0
  %12 = load ptr, ptr %11, align 8
  %13 = load ptr, ptr %7, align 8
  %14 = getelementptr inbounds nuw %struct.tvb_subset, ptr %13, i32 0, i32 1
  %15 = getelementptr inbounds nuw %struct.tvb_backing_t, ptr %14, i32 0, i32 1
  %16 = load i32, ptr %15, align 8
  %17 = load i32, ptr %5, align 4
  %18 = add i32 %16, %17
  %19 = load i32, ptr %6, align 4
  %20 = call ptr @tvb_clone_offset_len(ptr noundef %12, i32 noundef %18, i32 noundef %19)
  call void @llvm.lifetime.end.p0(i64 8, ptr %7) #4
  ret ptr %20
}