; Function Attrs: null_pointer_is_valid sspstrong uwtable
define internal ptr @subset_clone(ptr noundef readonly captures(none) %0, i32 noundef %1, i32 noundef %2) #0 {
  %4 = getelementptr inbounds nuw i8, ptr %0, i64 56
  %5 = load ptr, ptr %4, align 8
  %6 = getelementptr inbounds nuw i8, ptr %0, i64 64
  %7 = load i32, ptr %6, align 8
  %8 = add i32 %7, %1
  %9 = tail call ptr @tvb_clone_offset_len(ptr noundef %5, i32 noundef %8, i32 noundef %2)
  ret ptr %9
}